target datalayout = "e-m:e-p270:32:32-p271:32:32-p272:64:64-i64:64-i128:128-f80:128-n8:16:32:64-S128"
target triple = "x86_64-pc-linux-gnu"

%"class.pxrInternal_v0_24__pxrReserved__::TfFunctionRef" = type { ptr, ptr }
%"struct.pxrInternal_v0_24__pxrReserved__::Vt_ShapeData" = type { i64, [3 x i32] }

@.str.1 = private unnamed_addr constant [3 x i8] c", \00", align 1

; Function Attrs: mustprogress uwtable
define linkonce_odr void @_ZNK32pxrInternal_v0_24__pxrReserved__13TfFunctionRefIFvRSoEEclES1_(ptr noundef nonnull align 8 dereferenceable(16) %0, ptr noundef nonnull align 8 dereferenceable(8) %1) #0 comdat align 2 {
  %3 = alloca ptr, align 8
  %4 = alloca ptr, align 8
  store ptr %0, ptr %3, align 8
  store ptr %1, ptr %4, align 8
  %5 = load ptr, ptr %3, align 8
  %6 = getelementptr inbounds nuw %"class.pxrInternal_v0_24__pxrReserved__::TfFunctionRef", ptr %5, i32 0, i32 1
  %7 = load ptr, ptr %6, align 8
  %8 = getelementptr inbounds nuw %"class.pxrInternal_v0_24__pxrReserved__::TfFunctionRef", ptr %5, i32 0, i32 0
  %9 = load ptr, ptr %8, align 8
  %10 = load ptr, ptr %4, align 8
  call void %7(ptr noundef %9, ptr noundef nonnull align 8 dereferenceable(8) %10)
  ret void
}

; Function Attrs: mustprogress nounwind uwtable
define linkonce_odr noundef i32 @_ZNK32pxrInternal_v0_24__pxrReserved__12Vt_ShapeData7GetRankEv(ptr noundef nonnull align 8 dereferenceable(24) %0) #3 comdat align 2 {
  %2 = alloca ptr, align 8
  store ptr %0, ptr %2, align 8
  %3 = load ptr, ptr %2, align 8
  %4 = getelementptr inbounds nuw %"struct.pxrInternal_v0_24__pxrReserved__::Vt_ShapeData", ptr %3, i32 0, i32 1
  %5 = getelementptr inbounds [3 x i32], ptr %4, i64 0, i64 0
  %6 = load i32, ptr %5, align 8
  %7 = icmp eq i32 %6, 0
  br i1 %7, label %8, label %9

8:                                                ; preds = %1
  br label %23

9:                                                ; preds = %1
  %10 = getelementptr inbounds nuw %"struct.pxrInternal_v0_24__pxrReserved__::Vt_ShapeData", ptr %3, i32 0, i32 1
  %11 = getelementptr inbounds [3 x i32], ptr %10, i64 0, i64 1
  %12 = load i32, ptr %11, align 4
  %13 = icmp eq i32 %12, 0
  br i1 %13, label %14, label %15

14:                                               ; preds = %9
  br label %21

15:                                               ; preds = %9
  %16 = getelementptr inbounds nuw %"struct.pxrInternal_v0_24__pxrReserved__::Vt_ShapeData", ptr %3, i32 0, i32 1
  %17 = getelementptr inbounds [3 x i32], ptr %16, i64 0, i64 2
  %18 = load i32, ptr %17, align 8
  %19 = icmp eq i32 %18, 0
  %20 = select i1 %19, i32 3, i32 4
  br label %21

21:                                               ; preds = %15, %14
  %22 = phi i32 [ 2, %14 ], [ %20, %15 ]
  br label %23

23:                                               ; preds = %21, %8
  %24 = phi i32 [ 1, %8 ], [ %22, %21 ]
  ret i32 %24
}

; Function Attrs: mustprogress uwtable
define internal void @_ZN32pxrInternal_v0_24__pxrReserved__12_GLOBAL__N_121_StreamArrayRecursiveERSoRKNS_12Vt_ShapeDataENS_13TfFunctionRefIFvS1_EEEmm(ptr noundef nonnull align 8 dereferenceable(8) %0, ptr noundef nonnull align 8 dereferenceable(24) %1, ptr %2, ptr %3, i64 noundef %4, i64 noundef %5) #0 {
  %7 = alloca %"class.pxrInternal_v0_24__pxrReserved__::TfFunctionRef", align 8
  %8 = alloca ptr, align 8
  %9 = alloca ptr, align 8
  %10 = alloca i64, align 8
  %11 = alloca i64, align 8
  %12 = alloca i64, align 8
  %13 = alloca i64, align 8
  %14 = alloca %"class.pxrInternal_v0_24__pxrReserved__::TfFunctionRef", align 8
  %15 = getelementptr inbounds nuw { ptr, ptr }, ptr %7, i32 0, i32 0
  store ptr %2, ptr %15, align 8
  %16 = getelementptr inbounds nuw { ptr, ptr }, ptr %7, i32 0, i32 1
  store ptr %3, ptr %16, align 8
  store ptr %0, ptr %8, align 8
  store ptr %1, ptr %9, align 8
  store i64 %4, ptr %10, align 8
  store i64 %5, ptr %11, align 8
  %17 = load ptr, ptr %8, align 8
  %18 = call noundef nonnull align 8 dereferenceable(8) ptr @_ZStlsISt11char_traitsIcEERSt13basic_ostreamIcT_ES5_c(ptr noundef nonnull align 8 dereferenceable(8) %17, i8 noundef signext 91)
  %19 = load i64, ptr %11, align 8
  %20 = load ptr, ptr %9, align 8
  %21 = call noundef i32 @_ZNK32pxrInternal_v0_24__pxrReserved__12Vt_ShapeData7GetRankEv(ptr noundef nonnull align 8 dereferenceable(24) %20)
  %22 = sub i32 %21, 1
  %23 = zext i32 %22 to i64
  %24 = icmp eq i64 %19, %23
  br i1 %24, label %25, label %42

25:                                               ; preds = %6
  store i64 0, ptr %12, align 8
  br label %26

26:                                               ; preds = %38, %25
  %27 = load i64, ptr %12, align 8
  %28 = load i64, ptr %10, align 8
  %29 = icmp ult i64 %27, %28
  br i1 %29, label %30, label %41

30:                                               ; preds = %26
  %31 = load i64, ptr %12, align 8
  %32 = icmp ne i64 %31, 0
  br i1 %32, label %33, label %36

33:                                               ; preds = %30
  %34 = load ptr, ptr %8, align 8
  %35 = call noundef nonnull align 8 dereferenceable(8) ptr @_ZStlsISt11char_traitsIcEERSt13basic_ostreamIcT_ES5_PKc(ptr noundef nonnull align 8 dereferenceable(8) %34, ptr noundef @.str.1)
  br label %36

36:                                               ; preds = %33, %30
  %37 = load ptr, ptr %8, align 8
  call void @_ZNK32pxrInternal_v0_24__pxrReserved__13TfFunctionRefIFvRSoEEclES1_(ptr noundef nonnull align 8 dereferenceable(16) %7, ptr noundef nonnull align 8 dereferenceable(8) %37)
  br label %38

38:                                               ; preds = %36
  %39 = load i64, ptr %12, align 8
  %40 = add i64 %39, 1
  store i64 %40, ptr %12, align 8
  br label %26, !llvm.loop !6

41:                                               ; preds = %26
  br label %72

42:                                               ; preds = %6
  store i64 0, ptr %13, align 8
  br label %43

43:                                               ; preds = %68, %42
  %44 = load i64, ptr %13, align 8
  %45 = load ptr, ptr %9, align 8
  %46 = getelementptr inbounds nuw %"struct.pxrInternal_v0_24__pxrReserved__::Vt_ShapeData", ptr %45, i32 0, i32 1
  %47 = load i64, ptr %11, align 8
  %48 = getelementptr inbounds [3 x i32], ptr %46, i64 0, i64 %47
  %49 = load i32, ptr %48, align 4
  %50 = zext i32 %49 to i64
  %51 = icmp ult i64 %44, %50
  br i1 %51, label %52, label %71

52:                                               ; preds = %43
  %53 = load i64, ptr %13, align 8
  %54 = icmp ne i64 %53, 0
  br i1 %54, label %55, label %58

55:                                               ; preds = %52
  %56 = load ptr, ptr %8, align 8
  %57 = call noundef nonnull align 8 dereferenceable(8) ptr @_ZStlsISt11char_traitsIcEERSt13basic_ostreamIcT_ES5_PKc(ptr noundef nonnull align 8 dereferenceable(8) %56, ptr noundef @.str.1)
  br label %58

58:                                               ; preds = %55, %52
  %59 = load ptr, ptr %8, align 8
  %60 = load ptr, ptr %9, align 8
  call void @llvm.memcpy.p0.p0.i64(ptr align 8 %14, ptr align 8 %7, i64 16, i1 false)
  %61 = load i64, ptr %10, align 8
  %62 = load i64, ptr %11, align 8
  %63 = add i64 %62, 1
  %64 = getelementptr inbounds nuw { ptr, ptr }, ptr %14, i32 0, i32 0
  %65 = load ptr, ptr %64, align 8
  %66 = getelementptr inbounds nuw { ptr, ptr }, ptr %14, i32 0, i32 1
  %67 = load ptr, ptr %66, align 8
  call void @_ZN32pxrInternal_v0_24__pxrReserved__12_GLOBAL__N_121_StreamArrayRecursiveERSoRKNS_12Vt_ShapeDataENS_13TfFunctionRefIFvS1_EEEmm(ptr noundef nonnull align 8 dereferenceable(8) %59, ptr noundef nonnull align 8 dereferenceable(24) %60, ptr %65, ptr %67, i64 noundef %61, i64 noundef %63)
  br label %68

68:                                               ; preds = %58
  %69 = load i64, ptr %13, align 8
  %70 = add i64 %69, 1
  store i64 %70, ptr %13, align 8
  br label %43, !llvm.loop !7

71:                                               ; preds = %43
  br label %72

72:                                               ; preds = %71, %41
  %73 = load ptr, ptr %8, align 8
  %74 = call noundef nonnull align 8 dereferenceable(8) ptr @_ZStlsISt11char_traitsIcEERSt13basic_ostreamIcT_ES5_c(ptr noundef nonnull align 8 dereferenceable(8) %73, i8 noundef signext 93)
  ret void
}