; Function Attrs: mustprogress uwtable
define internal fastcc void @_ZN32pxrInternal_v0_24__pxrReserved__12_GLOBAL__N_121_StreamArrayRecursiveERSoRKNS_12Vt_ShapeDataENS_13TfFunctionRefIFvS1_EEEmm(ptr noundef nonnull align 8 dereferenceable(8) %0, ptr noundef nonnull readonly align 8 captures(none) dereferenceable(24) %1, ptr %2, ptr readonly captures(none) %3, i64 noundef %4, i64 noundef %5) unnamed_addr #0 {
  %7 = tail call noundef nonnull align 8 dereferenceable(8) ptr @_ZStlsISt11char_traitsIcEERSt13basic_ostreamIcT_ES5_c(ptr noundef nonnull align 8 dereferenceable(8) %0, i8 noundef signext 91)
  %8 = getelementptr inbounds nuw i8, ptr %1, i64 8
  %9 = load i32, ptr %8, align 8
  %10 = icmp eq i32 %9, 0
  br i1 %10, label %_ZNK32pxrInternal_v0_24__pxrReserved__12Vt_ShapeData7GetRankEv.exit, label %11

11:                                               ; preds = %6
  %12 = getelementptr inbounds nuw i8, ptr %1, i64 12
  %13 = load i32, ptr %12, align 4
  %14 = icmp eq i32 %13, 0
  br i1 %14, label %_ZNK32pxrInternal_v0_24__pxrReserved__12Vt_ShapeData7GetRankEv.exit, label %15

15:                                               ; preds = %11
  %16 = getelementptr inbounds nuw i8, ptr %1, i64 16
  %17 = load i32, ptr %16, align 8
  %18 = icmp eq i32 %17, 0
  %19 = select i1 %18, i64 2, i64 3
  br label %_ZNK32pxrInternal_v0_24__pxrReserved__12Vt_ShapeData7GetRankEv.exit

_ZNK32pxrInternal_v0_24__pxrReserved__12Vt_ShapeData7GetRankEv.exit: ; preds = %6, %11, %15
  %20 = phi i64 [ 0, %6 ], [ %19, %15 ], [ 1, %11 ]
  %21 = icmp eq i64 %5, %20
  br i1 %21, label %.preheader, label %.preheader22

.preheader22:                                     ; preds = %_ZNK32pxrInternal_v0_24__pxrReserved__12Vt_ShapeData7GetRankEv.exit
  %22 = getelementptr inbounds [3 x i32], ptr %8, i64 0, i64 %5
  %23 = load i32, ptr %22, align 4
  %.not27 = icmp eq i32 %23, 0
  br i1 %.not27, label %.loopexit, label %.lr.ph

.lr.ph:                                           ; preds = %.preheader22
  %24 = add i64 %5, 1
  br label %29

.preheader:                                       ; preds = %_ZNK32pxrInternal_v0_24__pxrReserved__12Vt_ShapeData7GetRankEv.exit
  %.not28 = icmp eq i64 %4, 0
  br i1 %.not28, label %.loopexit, label %.lr.ph26

.lr.ph26:                                         ; preds = %.preheader, %27
  %.025 = phi i64 [ %28, %27 ], [ 0, %.preheader ]
  %.not21 = icmp eq i64 %.025, 0
  br i1 %.not21, label %27, label %25

25:                                               ; preds = %.lr.ph26
  %26 = tail call noundef nonnull align 8 dereferenceable(8) ptr @_ZStlsISt11char_traitsIcEERSt13basic_ostreamIcT_ES5_PKc(ptr noundef nonnull align 8 dereferenceable(8) %0, ptr noundef nonnull @.str.1)
  br label %27

27:                                               ; preds = %25, %.lr.ph26
  tail call void %3(ptr noundef %2, ptr noundef nonnull align 8 dereferenceable(8) %0)
  %28 = add nuw i64 %.025, 1
  %exitcond.not = icmp eq i64 %28, %4
  br i1 %exitcond.not, label %.loopexit, label %.lr.ph26, !llvm.loop !9

29:                                               ; preds = %.lr.ph, %32
  %.01924 = phi i64 [ 0, %.lr.ph ], [ %33, %32 ]
  %.not = icmp eq i64 %.01924, 0
  br i1 %.not, label %32, label %30

30:                                               ; preds = %29
  %31 = tail call noundef nonnull align 8 dereferenceable(8) ptr @_ZStlsISt11char_traitsIcEERSt13basic_ostreamIcT_ES5_PKc(ptr noundef nonnull align 8 dereferenceable(8) %0, ptr noundef nonnull @.str.1)
  br label %32

32:                                               ; preds = %30, %29
  tail call fastcc void @_ZN32pxrInternal_v0_24__pxrReserved__12_GLOBAL__N_121_StreamArrayRecursiveERSoRKNS_12Vt_ShapeDataENS_13TfFunctionRefIFvS1_EEEmm(ptr noundef nonnull align 8 dereferenceable(8) %0, ptr noundef nonnull align 8 dereferenceable(24) %1, ptr %2, ptr %3, i64 noundef %4, i64 noundef %24)
  %33 = add nuw nsw i64 %.01924, 1
  %34 = load i32, ptr %22, align 4
  %35 = zext i32 %34 to i64
  %36 = icmp samesign ult i64 %33, %35
  br i1 %36, label %29, label %.loopexit, !llvm.loop !10

.loopexit:                                        ; preds = %32, %27, %.preheader22, %.preheader
  %37 = tail call noundef nonnull align 8 dereferenceable(8) ptr @_ZStlsISt11char_traitsIcEERSt13basic_ostreamIcT_ES5_c(ptr noundef nonnull align 8 dereferenceable(8) %0, i8 noundef signext 93)
  ret void
}